#include <math.h>
#include <stdio.h>
#include <stdlib.h>
#include <string.h>

void main()
{int i,t=0,m,n,a=0;
	char str[100];
	gets(str);
for(i=99;i>=0;i--)
{ if(str[i]=='\0')
{    t=1;
   m=i-1;
   continue;
}
 if(t==1)
 { 
    if(str[i]==' ')
	{a=1;
		for(n=i+1;n<=m;n++)
	printf("%c",str[n]);
    printf(" ");
	m=i-1;
	}
    if(i==0&&a==1)
	for(n=0;n<=m;n++)
		printf("%c",str[n]);

	}
 
}
if(a==0)
for(n=0;n<=m;n++)
 printf("%c",str[n]);
printf("\n");
}